target datalayout = "e-m:e-p270:32:32-p271:32:32-p272:64:64-i64:64-i128:128-f80:128-n8:16:32:64-S128"
target triple = "x86_64-pc-linux-gnu"

@hf_sysact_ctx_id = internal global i32 0, align 4
@hf_sysact_ctx_flags = internal global i32 0, align 4
@hf_sysact_ctx_res = internal global i32 0, align 4
@hf_sysact_ctx_numextents = internal global i32 0, align 4
@hf_sysact_ctx_extentscnt = internal global i32 0, align 4
@hf_sysact_ctx_mashflags = internal global i32 0, align 4
@hf_sysact_ctx_count = internal global i32 0, align 4
@hf_sysact_ctx_frozen = internal global i32 0, align 4
@ett_dcom_context = internal global i32 0, align 4
@.str.164 = private unnamed_addr constant [8 x i8] c"Context\00", align 1

; Function Attrs: null_pointer_is_valid sspstrong uwtable
define internal i32 @dissect_dcom_IContext(ptr noundef %0, i32 noundef %1, ptr noundef %2, ptr noundef %3, ptr noundef %4, ptr noundef %5, i32 noundef %6) #0 {
  %8 = alloca ptr, align 8
  %9 = alloca i32, align 4
  %10 = alloca ptr, align 8
  %11 = alloca ptr, align 8
  %12 = alloca ptr, align 8
  %13 = alloca ptr, align 8
  %14 = alloca i32, align 4
  %15 = alloca ptr, align 8
  %16 = alloca ptr, align 8
  %17 = alloca i32, align 4
  %18 = alloca i32, align 4
  store ptr %0, ptr %8, align 8
  store i32 %1, ptr %9, align 4
  store ptr %2, ptr %10, align 8
  store ptr %3, ptr %11, align 8
  store ptr %4, ptr %12, align 8
  store ptr %5, ptr %13, align 8
  store i32 %6, ptr %14, align 4
  call void @llvm.lifetime.start.p0(i64 8, ptr %15) #5
  call void @llvm.lifetime.start.p0(i64 8, ptr %16) #5
  call void @llvm.lifetime.start.p0(i64 4, ptr %17) #5
  call void @llvm.lifetime.start.p0(i64 4, ptr %18) #5
  %19 = load i32, ptr %9, align 4
  store i32 %19, ptr %17, align 4
  %20 = load ptr, ptr %11, align 8
  %21 = load ptr, ptr %8, align 8
  %22 = load i32, ptr %9, align 4
  %23 = load i32, ptr @ett_dcom_context, align 4
  %24 = call ptr @proto_tree_add_subtree(ptr noundef %20, ptr noundef %21, i32 noundef %22, i32 noundef 0, i32 noundef %23, ptr noundef %15, ptr noundef @.str.164)
  store ptr %24, ptr %16, align 8
  %25 = load ptr, ptr %8, align 8
  %26 = load i32, ptr %9, align 4
  %27 = load ptr, ptr %10, align 8
  %28 = load ptr, ptr %16, align 8
  %29 = load ptr, ptr %12, align 8
  %30 = load ptr, ptr %13, align 8
  %31 = call i32 @dissect_dcom_COMVERSION(ptr noundef %25, i32 noundef %26, ptr noundef %27, ptr noundef %28, ptr noundef %29, ptr noundef %30, ptr noundef null, ptr noundef null)
  store i32 %31, ptr %9, align 4
  %32 = load ptr, ptr %8, align 8
  %33 = load i32, ptr %9, align 4
  %34 = load ptr, ptr %10, align 8
  %35 = load ptr, ptr %16, align 8
  %36 = load ptr, ptr %12, align 8
  %37 = load ptr, ptr %13, align 8
  %38 = load i32, ptr @hf_sysact_ctx_id, align 4
  %39 = call i32 @dissect_dcom_UUID(ptr noundef %32, i32 noundef %33, ptr noundef %34, ptr noundef %35, ptr noundef %36, ptr noundef %37, i32 noundef %38, ptr noundef null)
  store i32 %39, ptr %9, align 4
  %40 = load ptr, ptr %8, align 8
  %41 = load i32, ptr %9, align 4
  %42 = load ptr, ptr %10, align 8
  %43 = load ptr, ptr %16, align 8
  %44 = load ptr, ptr %12, align 8
  %45 = load ptr, ptr %13, align 8
  %46 = load i32, ptr @hf_sysact_ctx_flags, align 4
  %47 = call i32 @dissect_ndr_uint32(ptr noundef %40, i32 noundef %41, ptr noundef %42, ptr noundef %43, ptr noundef %44, ptr noundef %45, i32 noundef %46, ptr noundef null)
  store i32 %47, ptr %9, align 4
  %48 = load ptr, ptr %8, align 8
  %49 = load i32, ptr %9, align 4
  %50 = load ptr, ptr %10, align 8
  %51 = load ptr, ptr %16, align 8
  %52 = load ptr, ptr %12, align 8
  %53 = load ptr, ptr %13, align 8
  %54 = load i32, ptr @hf_sysact_ctx_res, align 4
  %55 = call i32 @dissect_ndr_uint32(ptr noundef %48, i32 noundef %49, ptr noundef %50, ptr noundef %51, ptr noundef %52, ptr noundef %53, i32 noundef %54, ptr noundef null)
  store i32 %55, ptr %9, align 4
  %56 = load ptr, ptr %8, align 8
  %57 = load i32, ptr %9, align 4
  %58 = load ptr, ptr %10, align 8
  %59 = load ptr, ptr %16, align 8
  %60 = load ptr, ptr %12, align 8
  %61 = load ptr, ptr %13, align 8
  %62 = load i32, ptr @hf_sysact_ctx_numextents, align 4
  %63 = call i32 @dissect_ndr_uint32(ptr noundef %56, i32 noundef %57, ptr noundef %58, ptr noundef %59, ptr noundef %60, ptr noundef %61, i32 noundef %62, ptr noundef null)
  store i32 %63, ptr %9, align 4
  %64 = load ptr, ptr %8, align 8
  %65 = load i32, ptr %9, align 4
  %66 = load ptr, ptr %10, align 8
  %67 = load ptr, ptr %16, align 8
  %68 = load ptr, ptr %12, align 8
  %69 = load ptr, ptr %13, align 8
  %70 = load i32, ptr @hf_sysact_ctx_extentscnt, align 4
  %71 = call i32 @dissect_ndr_uint32(ptr noundef %64, i32 noundef %65, ptr noundef %66, ptr noundef %67, ptr noundef %68, ptr noundef %69, i32 noundef %70, ptr noundef null)
  store i32 %71, ptr %9, align 4
  %72 = load ptr, ptr %8, align 8
  %73 = load i32, ptr %9, align 4
  %74 = load ptr, ptr %10, align 8
  %75 = load ptr, ptr %16, align 8
  %76 = load ptr, ptr %12, align 8
  %77 = load ptr, ptr %13, align 8
  %78 = load i32, ptr @hf_sysact_ctx_mashflags, align 4
  %79 = call i32 @dissect_ndr_uint32(ptr noundef %72, i32 noundef %73, ptr noundef %74, ptr noundef %75, ptr noundef %76, ptr noundef %77, i32 noundef %78, ptr noundef null)
  store i32 %79, ptr %9, align 4
  %80 = load ptr, ptr %8, align 8
  %81 = load i32, ptr %9, align 4
  %82 = load ptr, ptr %10, align 8
  %83 = load ptr, ptr %16, align 8
  %84 = load ptr, ptr %12, align 8
  %85 = load ptr, ptr %13, align 8
  %86 = load i32, ptr @hf_sysact_ctx_count, align 4
  %87 = call i32 @dissect_ndr_uint32(ptr noundef %80, i32 noundef %81, ptr noundef %82, ptr noundef %83, ptr noundef %84, ptr noundef %85, i32 noundef %86, ptr noundef %18)
  store i32 %87, ptr %9, align 4
  %88 = load ptr, ptr %8, align 8
  %89 = load i32, ptr %9, align 4
  %90 = load ptr, ptr %10, align 8
  %91 = load ptr, ptr %16, align 8
  %92 = load ptr, ptr %12, align 8
  %93 = load ptr, ptr %13, align 8
  %94 = load i32, ptr @hf_sysact_ctx_frozen, align 4
  %95 = call i32 @dissect_ndr_uint32(ptr noundef %88, i32 noundef %89, ptr noundef %90, ptr noundef %91, ptr noundef %92, ptr noundef %93, i32 noundef %94, ptr noundef null)
  store i32 %95, ptr %9, align 4
  %96 = load i32, ptr %18, align 4
  %97 = icmp ne i32 %96, 0
  br i1 %97, label %98, label %99

98:                                               ; preds = %7
  br label %99

99:                                               ; preds = %98, %7
  %100 = load ptr, ptr %15, align 8
  %101 = load i32, ptr %9, align 4
  %102 = load i32, ptr %17, align 4
  %103 = sub i32 %101, %102
  call void @proto_item_set_len(ptr noundef %100, i32 noundef %103)
  %104 = load i32, ptr %9, align 4
  call void @llvm.lifetime.end.p0(i64 4, ptr %18) #5
  call void @llvm.lifetime.end.p0(i64 4, ptr %17) #5
  call void @llvm.lifetime.end.p0(i64 8, ptr %16) #5
  call void @llvm.lifetime.end.p0(i64 8, ptr %15) #5
  ret i32 %104
}