; Function Attrs: null_pointer_is_valid sspstrong uwtable
define internal i32 @dissect_dcom_IContext(ptr noundef %0, i32 noundef %1, ptr noundef %2, ptr noundef %3, ptr noundef %4, ptr noundef %5, i32 %6) #0 {
  %8 = alloca ptr, align 8
  %9 = alloca i32, align 4
  call void @llvm.lifetime.start.p0(i64 8, ptr nonnull %8) #6
  call void @llvm.lifetime.start.p0(i64 4, ptr nonnull %9) #6
  %10 = load i32, ptr @ett_dcom_context, align 4
  %11 = call ptr @proto_tree_add_subtree(ptr noundef %3, ptr noundef %0, i32 noundef %1, i32 noundef 0, i32 noundef %10, ptr noundef nonnull %8, ptr noundef nonnull @.str.164)
  %12 = call i32 @dissect_dcom_COMVERSION(ptr noundef %0, i32 noundef %1, ptr noundef %2, ptr noundef %11, ptr noundef %4, ptr noundef %5, ptr noundef null, ptr noundef null)
  %13 = load i32, ptr @hf_sysact_ctx_id, align 4
  %14 = call i32 @dissect_dcom_UUID(ptr noundef %0, i32 noundef %12, ptr noundef %2, ptr noundef %11, ptr noundef %4, ptr noundef %5, i32 noundef %13, ptr noundef null)
  %15 = load i32, ptr @hf_sysact_ctx_flags, align 4
  %16 = call i32 @dissect_ndr_uint32(ptr noundef %0, i32 noundef %14, ptr noundef %2, ptr noundef %11, ptr noundef %4, ptr noundef %5, i32 noundef %15, ptr noundef null)
  %17 = load i32, ptr @hf_sysact_ctx_res, align 4
  %18 = call i32 @dissect_ndr_uint32(ptr noundef %0, i32 noundef %16, ptr noundef %2, ptr noundef %11, ptr noundef %4, ptr noundef %5, i32 noundef %17, ptr noundef null)
  %19 = load i32, ptr @hf_sysact_ctx_numextents, align 4
  %20 = call i32 @dissect_ndr_uint32(ptr noundef %0, i32 noundef %18, ptr noundef %2, ptr noundef %11, ptr noundef %4, ptr noundef %5, i32 noundef %19, ptr noundef null)
  %21 = load i32, ptr @hf_sysact_ctx_extentscnt, align 4
  %22 = call i32 @dissect_ndr_uint32(ptr noundef %0, i32 noundef %20, ptr noundef %2, ptr noundef %11, ptr noundef %4, ptr noundef %5, i32 noundef %21, ptr noundef null)
  %23 = load i32, ptr @hf_sysact_ctx_mashflags, align 4
  %24 = call i32 @dissect_ndr_uint32(ptr noundef %0, i32 noundef %22, ptr noundef %2, ptr noundef %11, ptr noundef %4, ptr noundef %5, i32 noundef %23, ptr noundef null)
  %25 = load i32, ptr @hf_sysact_ctx_count, align 4
  %26 = call i32 @dissect_ndr_uint32(ptr noundef %0, i32 noundef %24, ptr noundef %2, ptr noundef %11, ptr noundef %4, ptr noundef %5, i32 noundef %25, ptr noundef nonnull %9)
  %27 = load i32, ptr @hf_sysact_ctx_frozen, align 4
  %28 = call i32 @dissect_ndr_uint32(ptr noundef %0, i32 noundef %26, ptr noundef %2, ptr noundef %11, ptr noundef %4, ptr noundef %5, i32 noundef %27, ptr noundef null)
  %29 = load ptr, ptr %8, align 8
  %30 = sub i32 %28, %1
  call void @proto_item_set_len(ptr noundef %29, i32 noundef %30)
  call void @llvm.lifetime.end.p0(i64 4, ptr nonnull %9) #6
  call void @llvm.lifetime.end.p0(i64 8, ptr nonnull %8) #6
  ret i32 %28
}